target datalayout = "e-m:e-p270:32:32-p271:32:32-p272:64:64-i64:64-i128:128-f80:128-n8:16:32:64-S128"
target triple = "x86_64-pc-linux-gnu"

%struct._address = type { i32, i32, ptr, ptr }
%struct._packet_info = type { ptr, ptr, i32, i32, %struct.nstime_t, %struct.nstime_t, %struct.nstime_t, i32, ptr, ptr, ptr, ptr, %struct._address, %struct._address, %struct._address, %struct._address, %struct._address, %struct._address, i32, ptr, i32, %struct.anon, i32, i32, i32, i32, ptr, i32, ptr, ptr, i16, i16, i32, i32, i16, i32, i32, ptr, ptr, ptr, i8, i8, i16, i16, i16, i32, i16, i16, ptr, ptr, ptr, ptr, ptr, i32 }
%struct.nstime_t = type { i64, i32 }
%struct.anon = type { i8, [3 x i8] }
%struct.ltp_tap_info_t = type { ptr, i8, %struct.ltp_session_id_t, ptr, i32, i32, i32 }
%struct.ltp_session_id_t = type { i64, i64 }

@st_str_segs = internal global ptr @.str.207, align 8
@st_str_red = internal global ptr @.str.208, align 8
@st_str_corr_orig = internal global ptr @.str.209, align 8
@st_str_corr_ret = internal global ptr @.str.210, align 8
@st_node_red = internal global i32 -1, align 4
@st_str_green = internal global ptr @.str.211, align 8
@st_str_rpt = internal global ptr @.str.212, align 8
@st_node_rpt = internal global i32 -1, align 4
@st_str_canc_src = internal global ptr @.str.213, align 8
@st_str_canc_dst = internal global ptr @.str.214, align 8
@st_str_ack = internal global ptr @.str.215, align 8
@st_str_engs = internal global ptr @.str.216, align 8
@.str.206 = private unnamed_addr constant [4 x i8] c"%lu\00", align 1
@st_node_engs = internal global i32 -1, align 4
@st_str_blks = internal global ptr @.str.217, align 8
@st_node_blks = internal global i32 -1, align 4

; Function Attrs: nounwind uwtable
define internal i32 @ltp_stats_tree_packet(ptr noundef %0, ptr noundef %1, ptr noundef %2, ptr noundef %3, i32 noundef %4) #0 {
  %6 = alloca ptr, align 8
  %7 = alloca ptr, align 8
  %8 = alloca ptr, align 8
  %9 = alloca ptr, align 8
  %10 = alloca i32, align 4
  %11 = alloca ptr, align 8
  %12 = alloca ptr, align 8
  %13 = alloca i32, align 4
  %14 = alloca ptr, align 8
  %15 = alloca ptr, align 8
  store ptr %0, ptr %6, align 8
  store ptr %1, ptr %7, align 8
  store ptr %2, ptr %8, align 8
  store ptr %3, ptr %9, align 8
  store i32 %4, ptr %10, align 4
  %16 = load ptr, ptr %9, align 8
  store ptr %16, ptr %11, align 8
  %17 = load ptr, ptr %6, align 8
  %18 = load ptr, ptr @st_str_segs, align 8
  %19 = call i32 @stats_tree_manip_node_int(i32 noundef 0, ptr noundef %17, ptr noundef %18, i32 noundef 0, i32 noundef 0, i32 noundef 1)
  %20 = load ptr, ptr %11, align 8
  %21 = getelementptr inbounds %struct.ltp_tap_info_t, ptr %20, i32 0, i32 1
  %22 = load i8, ptr %21, align 8
  %23 = zext i8 %22 to i32
  switch i32 %23, label %98 [
    i32 0, label %24
    i32 1, label %24
    i32 2, label %24
    i32 3, label %24
    i32 4, label %47
    i32 7, label %47
    i32 8, label %54
    i32 12, label %77
    i32 14, label %84
    i32 9, label %91
    i32 13, label %91
    i32 15, label %91
  ]

24:                                               ; preds = %5, %5, %5, %5
  %25 = load ptr, ptr %6, align 8
  %26 = load ptr, ptr @st_str_red, align 8
  %27 = load ptr, ptr %11, align 8
  %28 = getelementptr inbounds %struct.ltp_tap_info_t, ptr %27, i32 0, i32 4
  %29 = load i32, ptr %28, align 8
  %30 = call i32 @stats_tree_manip_node_int(i32 noundef 2, ptr noundef %25, ptr noundef %26, i32 noundef 0, i32 noundef 0, i32 noundef %29)
  %31 = load ptr, ptr %6, align 8
  %32 = load ptr, ptr %11, align 8
  %33 = getelementptr inbounds %struct.ltp_tap_info_t, ptr %32, i32 0, i32 6
  %34 = load i32, ptr %33, align 8
  %35 = icmp ne i32 %34, 0
  br i1 %35, label %36, label %38

36:                                               ; preds = %24
  %37 = load ptr, ptr @st_str_corr_orig, align 8
  br label %40

38:                                               ; preds = %24
  %39 = load ptr, ptr @st_str_corr_ret, align 8
  br label %40

40:                                               ; preds = %38, %36
  %41 = phi ptr [ %37, %36 ], [ %39, %38 ]
  %42 = load i32, ptr @st_node_red, align 4
  %43 = load ptr, ptr %11, align 8
  %44 = getelementptr inbounds %struct.ltp_tap_info_t, ptr %43, i32 0, i32 4
  %45 = load i32, ptr %44, align 8
  %46 = call i32 @stats_tree_manip_node_int(i32 noundef 2, ptr noundef %31, ptr noundef %41, i32 noundef %42, i32 noundef 1, i32 noundef %45)
  br label %98

47:                                               ; preds = %5, %5
  %48 = load ptr, ptr %6, align 8
  %49 = load ptr, ptr @st_str_green, align 8
  %50 = load ptr, ptr %11, align 8
  %51 = getelementptr inbounds %struct.ltp_tap_info_t, ptr %50, i32 0, i32 4
  %52 = load i32, ptr %51, align 8
  %53 = call i32 @stats_tree_manip_node_int(i32 noundef 2, ptr noundef %48, ptr noundef %49, i32 noundef 0, i32 noundef 0, i32 noundef %52)
  br label %98

54:                                               ; preds = %5
  %55 = load ptr, ptr %6, align 8
  %56 = load ptr, ptr @st_str_rpt, align 8
  %57 = load ptr, ptr %11, align 8
  %58 = getelementptr inbounds %struct.ltp_tap_info_t, ptr %57, i32 0, i32 4
  %59 = load i32, ptr %58, align 8
  %60 = call i32 @stats_tree_manip_node_int(i32 noundef 2, ptr noundef %55, ptr noundef %56, i32 noundef 0, i32 noundef 0, i32 noundef %59)
  %61 = load ptr, ptr %6, align 8
  %62 = load ptr, ptr %11, align 8
  %63 = getelementptr inbounds %struct.ltp_tap_info_t, ptr %62, i32 0, i32 6
  %64 = load i32, ptr %63, align 8
  %65 = icmp ne i32 %64, 0
  br i1 %65, label %66, label %68

66:                                               ; preds = %54
  %67 = load ptr, ptr @st_str_corr_orig, align 8
  br label %70

68:                                               ; preds = %54
  %69 = load ptr, ptr @st_str_corr_ret, align 8
  br label %70

70:                                               ; preds = %68, %66
  %71 = phi ptr [ %67, %66 ], [ %69, %68 ]
  %72 = load i32, ptr @st_node_rpt, align 4
  %73 = load ptr, ptr %11, align 8
  %74 = getelementptr inbounds %struct.ltp_tap_info_t, ptr %73, i32 0, i32 4
  %75 = load i32, ptr %74, align 8
  %76 = call i32 @stats_tree_manip_node_int(i32 noundef 2, ptr noundef %61, ptr noundef %71, i32 noundef %72, i32 noundef 1, i32 noundef %75)
  br label %98

77:                                               ; preds = %5
  %78 = load ptr, ptr %6, align 8
  %79 = load ptr, ptr @st_str_canc_src, align 8
  %80 = load ptr, ptr %11, align 8
  %81 = getelementptr inbounds %struct.ltp_tap_info_t, ptr %80, i32 0, i32 4
  %82 = load i32, ptr %81, align 8
  %83 = call i32 @stats_tree_manip_node_int(i32 noundef 2, ptr noundef %78, ptr noundef %79, i32 noundef 0, i32 noundef 0, i32 noundef %82)
  br label %98

84:                                               ; preds = %5
  %85 = load ptr, ptr %6, align 8
  %86 = load ptr, ptr @st_str_canc_dst, align 8
  %87 = load ptr, ptr %11, align 8
  %88 = getelementptr inbounds %struct.ltp_tap_info_t, ptr %87, i32 0, i32 4
  %89 = load i32, ptr %88, align 8
  %90 = call i32 @stats_tree_manip_node_int(i32 noundef 2, ptr noundef %85, ptr noundef %86, i32 noundef 0, i32 noundef 0, i32 noundef %89)
  br label %98

91:                                               ; preds = %5, %5, %5
  %92 = load ptr, ptr %6, align 8
  %93 = load ptr, ptr @st_str_ack, align 8
  %94 = load ptr, ptr %11, align 8
  %95 = getelementptr inbounds %struct.ltp_tap_info_t, ptr %94, i32 0, i32 4
  %96 = load i32, ptr %95, align 8
  %97 = call i32 @stats_tree_manip_node_int(i32 noundef 2, ptr noundef %92, ptr noundef %93, i32 noundef 0, i32 noundef 0, i32 noundef %96)
  br label %98

98:                                               ; preds = %91, %84, %77, %70, %47, %40, %5
  %99 = load ptr, ptr %6, align 8
  %100 = load ptr, ptr @st_str_engs, align 8
  %101 = call i32 @stats_tree_manip_node_int(i32 noundef 0, ptr noundef %99, ptr noundef %100, i32 noundef 0, i32 noundef 1, i32 noundef 1)
  %102 = load ptr, ptr %7, align 8
  %103 = getelementptr inbounds %struct._packet_info, ptr %102, i32 0, i32 50
  %104 = load ptr, ptr %103, align 8
  %105 = load ptr, ptr %11, align 8
  %106 = getelementptr inbounds %struct.ltp_tap_info_t, ptr %105, i32 0, i32 2
  %107 = getelementptr inbounds %struct.ltp_session_id_t, ptr %106, i32 0, i32 0
  %108 = load i64, ptr %107, align 8
  %109 = call noalias ptr (ptr, ptr, ...) @wmem_strdup_printf(ptr noundef %104, ptr noundef @.str.206, i64 noundef %108)
  store ptr %109, ptr %12, align 8
  %110 = load ptr, ptr %6, align 8
  %111 = load ptr, ptr %12, align 8
  %112 = load i32, ptr @st_node_engs, align 4
  %113 = call i32 @stats_tree_manip_node_int(i32 noundef 0, ptr noundef %110, ptr noundef %111, i32 noundef %112, i32 noundef 1, i32 noundef 1)
  store i32 %113, ptr %13, align 4
  %114 = load ptr, ptr %11, align 8
  %115 = getelementptr inbounds %struct.ltp_tap_info_t, ptr %114, i32 0, i32 5
  %116 = load i32, ptr %115, align 4
  %117 = icmp ugt i32 %116, 0
  br i1 %117, label %118, label %132

118:                                              ; preds = %98
  %119 = load ptr, ptr %6, align 8
  %120 = load ptr, ptr @st_str_blks, align 8
  %121 = load ptr, ptr %11, align 8
  %122 = getelementptr inbounds %struct.ltp_tap_info_t, ptr %121, i32 0, i32 5
  %123 = load i32, ptr %122, align 4
  %124 = call i32 @stats_tree_manip_node_int(i32 noundef 2, ptr noundef %119, ptr noundef %120, i32 noundef 0, i32 noundef 1, i32 noundef %123)
  %125 = load ptr, ptr %6, align 8
  %126 = load ptr, ptr %12, align 8
  %127 = load i32, ptr @st_node_blks, align 4
  %128 = load ptr, ptr %11, align 8
  %129 = getelementptr inbounds %struct.ltp_tap_info_t, ptr %128, i32 0, i32 5
  %130 = load i32, ptr %129, align 4
  %131 = call i32 @stats_tree_manip_node_int(i32 noundef 2, ptr noundef %125, ptr noundef %126, i32 noundef %127, i32 noundef 0, i32 noundef %130)
  br label %132

132:                                              ; preds = %118, %98
  store ptr null, ptr %14, align 8
  %133 = load ptr, ptr %11, align 8
  %134 = getelementptr inbounds %struct.ltp_tap_info_t, ptr %133, i32 0, i32 1
  %135 = load i8, ptr %134, align 8
  %136 = zext i8 %135 to i32
  switch i32 %136, label %143 [
    i32 0, label %137
    i32 1, label %137
    i32 2, label %137
    i32 3, label %137
    i32 4, label %137
    i32 7, label %137
    i32 9, label %137
    i32 12, label %137
    i32 15, label %137
    i32 8, label %140
    i32 13, label %140
    i32 14, label %140
  ]

137:                                              ; preds = %132, %132, %132, %132, %132, %132, %132, %132, %132
  %138 = load ptr, ptr %7, align 8
  %139 = getelementptr inbounds %struct._packet_info, ptr %138, i32 0, i32 16
  store ptr %139, ptr %14, align 8
  br label %143

140:                                              ; preds = %132, %132, %132
  %141 = load ptr, ptr %7, align 8
  %142 = getelementptr inbounds %struct._packet_info, ptr %141, i32 0, i32 17
  store ptr %142, ptr %14, align 8
  br label %143

143:                                              ; preds = %140, %137, %132
  %144 = load ptr, ptr %14, align 8
  %145 = icmp ne ptr %144, null
  br i1 %145, label %146, label %152

146:                                              ; preds = %143
  %147 = load ptr, ptr %7, align 8
  %148 = getelementptr inbounds %struct._packet_info, ptr %147, i32 0, i32 50
  %149 = load ptr, ptr %148, align 8
  %150 = load ptr, ptr %14, align 8
  %151 = call ptr @address_to_display(ptr noundef %149, ptr noundef %150)
  br label %153

152:                                              ; preds = %143
  br label %153

153:                                              ; preds = %152, %146
  %154 = phi ptr [ %151, %146 ], [ null, %152 ]
  store ptr %154, ptr %15, align 8
  %155 = load ptr, ptr %15, align 8
  %156 = icmp ne ptr %155, null
  br i1 %156, label %157, label %162

157:                                              ; preds = %153
  %158 = load ptr, ptr %6, align 8
  %159 = load ptr, ptr %15, align 8
  %160 = load i32, ptr %13, align 4
  %161 = call i32 @stats_tree_manip_node_int(i32 noundef 0, ptr noundef %158, ptr noundef %159, i32 noundef %160, i32 noundef 0, i32 noundef 1)
  br label %162

162:                                              ; preds = %157, %153
  ret i32 1
}