; Function Attrs: nounwind uwtable
define internal noundef i32 @ltp_stats_tree_packet(ptr noundef %0, ptr noundef %1, ptr readnone captures(none) %2, ptr noundef readonly captures(none) %3, i32 %4) #0 {
  %6 = tail call i32 @stats_tree_manip_node_int(i32 noundef 0, ptr noundef %0, ptr noundef nonnull @.str.207, i32 noundef 0, i32 noundef 0, i32 noundef 1) #8
  %7 = getelementptr inbounds nuw i8, ptr %3, i64 8
  %8 = load i8, ptr %7, align 8
  switch i8 %8, label %45 [
    i8 0, label %9
    i8 1, label %9
    i8 2, label %9
    i8 3, label %9
    i8 4, label %19
    i8 7, label %19
    i8 8, label %23
    i8 12, label %33
    i8 14, label %37
    i8 9, label %41
    i8 13, label %41
    i8 15, label %41
  ]

9:                                                ; preds = %5, %5, %5, %5
  %10 = getelementptr inbounds nuw i8, ptr %3, i64 40
  %11 = load i32, ptr %10, align 8
  %12 = tail call i32 @stats_tree_manip_node_int(i32 noundef 2, ptr noundef %0, ptr noundef nonnull @.str.208, i32 noundef 0, i32 noundef 0, i32 noundef %11) #8
  %13 = getelementptr inbounds nuw i8, ptr %3, i64 48
  %14 = load i32, ptr %13, align 8
  %.not43 = icmp eq i32 %14, 0
  %15 = select i1 %.not43, ptr @.str.210, ptr @.str.209
  %16 = load i32, ptr @st_node_red, align 4
  %17 = load i32, ptr %10, align 8
  %18 = tail call i32 @stats_tree_manip_node_int(i32 noundef 2, ptr noundef %0, ptr noundef nonnull %15, i32 noundef %16, i32 noundef 1, i32 noundef %17) #8
  br label %45

19:                                               ; preds = %5, %5
  %20 = getelementptr inbounds nuw i8, ptr %3, i64 40
  %21 = load i32, ptr %20, align 8
  %22 = tail call i32 @stats_tree_manip_node_int(i32 noundef 2, ptr noundef %0, ptr noundef nonnull @.str.211, i32 noundef 0, i32 noundef 0, i32 noundef %21) #8
  br label %45

23:                                               ; preds = %5
  %24 = getelementptr inbounds nuw i8, ptr %3, i64 40
  %25 = load i32, ptr %24, align 8
  %26 = tail call i32 @stats_tree_manip_node_int(i32 noundef 2, ptr noundef %0, ptr noundef nonnull @.str.212, i32 noundef 0, i32 noundef 0, i32 noundef %25) #8
  %27 = getelementptr inbounds nuw i8, ptr %3, i64 48
  %28 = load i32, ptr %27, align 8
  %.not = icmp eq i32 %28, 0
  %29 = select i1 %.not, ptr @.str.210, ptr @.str.209
  %30 = load i32, ptr @st_node_rpt, align 4
  %31 = load i32, ptr %24, align 8
  %32 = tail call i32 @stats_tree_manip_node_int(i32 noundef 2, ptr noundef %0, ptr noundef nonnull %29, i32 noundef %30, i32 noundef 1, i32 noundef %31) #8
  br label %45

33:                                               ; preds = %5
  %34 = getelementptr inbounds nuw i8, ptr %3, i64 40
  %35 = load i32, ptr %34, align 8
  %36 = tail call i32 @stats_tree_manip_node_int(i32 noundef 2, ptr noundef %0, ptr noundef nonnull @.str.213, i32 noundef 0, i32 noundef 0, i32 noundef %35) #8
  br label %45

37:                                               ; preds = %5
  %38 = getelementptr inbounds nuw i8, ptr %3, i64 40
  %39 = load i32, ptr %38, align 8
  %40 = tail call i32 @stats_tree_manip_node_int(i32 noundef 2, ptr noundef %0, ptr noundef nonnull @.str.214, i32 noundef 0, i32 noundef 0, i32 noundef %39) #8
  br label %45

41:                                               ; preds = %5, %5, %5
  %42 = getelementptr inbounds nuw i8, ptr %3, i64 40
  %43 = load i32, ptr %42, align 8
  %44 = tail call i32 @stats_tree_manip_node_int(i32 noundef 2, ptr noundef %0, ptr noundef nonnull @.str.215, i32 noundef 0, i32 noundef 0, i32 noundef %43) #8
  br label %45

45:                                               ; preds = %41, %37, %33, %23, %19, %9, %5
  %46 = tail call i32 @stats_tree_manip_node_int(i32 noundef 0, ptr noundef %0, ptr noundef nonnull @.str.216, i32 noundef 0, i32 noundef 1, i32 noundef 1) #8
  %47 = getelementptr inbounds nuw i8, ptr %1, i64 408
  %48 = load ptr, ptr %47, align 8
  %49 = getelementptr inbounds nuw i8, ptr %3, i64 16
  %50 = load i64, ptr %49, align 8
  %51 = tail call noalias ptr (ptr, ptr, ...) @wmem_strdup_printf(ptr noundef %48, ptr noundef nonnull @.str.206, i64 noundef %50) #8
  %52 = load i32, ptr @st_node_engs, align 4
  %53 = tail call i32 @stats_tree_manip_node_int(i32 noundef 0, ptr noundef %0, ptr noundef %51, i32 noundef %52, i32 noundef 1, i32 noundef 1) #8
  %54 = getelementptr inbounds nuw i8, ptr %3, i64 44
  %55 = load i32, ptr %54, align 4
  %.not44 = icmp eq i32 %55, 0
  br i1 %.not44, label %61, label %56

56:                                               ; preds = %45
  %57 = tail call i32 @stats_tree_manip_node_int(i32 noundef 2, ptr noundef %0, ptr noundef nonnull @.str.217, i32 noundef 0, i32 noundef 1, i32 noundef %55) #8
  %58 = load i32, ptr @st_node_blks, align 4
  %59 = load i32, ptr %54, align 4
  %60 = tail call i32 @stats_tree_manip_node_int(i32 noundef 2, ptr noundef %0, ptr noundef %51, i32 noundef %58, i32 noundef 0, i32 noundef %59) #8
  br label %61

61:                                               ; preds = %56, %45
  %62 = load i8, ptr %7, align 8
  %63 = icmp ult i8 %62, 16
  br i1 %63, label %switch.hole_check, label %.thread50

switch.hole_check:                                ; preds = %61
  %switch.maskindex = zext nneg i8 %62 to i16
  %switch.shifted = lshr i16 -3169, %switch.maskindex
  %switch.lobit = trunc i16 %switch.shifted to i1
  br i1 %switch.lobit, label %switch.lookup, label %.thread50

switch.lookup:                                    ; preds = %switch.hole_check
  %64 = zext nneg i8 %62 to i64
  %switch.gep = getelementptr inbounds nuw [16 x i64], ptr @switch.table.ltp_stats_tree_packet, i64 0, i64 %64
  %switch.load = load i64, ptr %switch.gep, align 8
  %65 = getelementptr inbounds nuw i8, ptr %1, i64 %switch.load
  %66 = load ptr, ptr %47, align 8
  %67 = tail call ptr @address_to_display(ptr noundef %66, ptr noundef nonnull %65) #8
  %.not46 = icmp eq ptr %67, null
  br i1 %.not46, label %.thread50, label %68

68:                                               ; preds = %switch.lookup
  %69 = tail call i32 @stats_tree_manip_node_int(i32 noundef 0, ptr noundef %0, ptr noundef nonnull %67, i32 noundef %53, i32 noundef 0, i32 noundef 1) #8
  br label %.thread50

.thread50:                                        ; preds = %switch.hole_check, %61, %68, %switch.lookup
  ret i32 1
}